target datalayout = "e-m:e-p270:32:32-p271:32:32-p272:64:64-i64:64-i128:128-f80:128-n8:16:32:64-S128"
target triple = "x86_64-pc-linux-gnu"

%struct.TabList = type { [32 x %struct.Tab], i32, i32, i32 }
%struct.Tab = type { ptr, i64 }
%struct.VVCFrameContext = type { ptr, [17 x %struct.VVCFrame], ptr, ptr, %struct.VVCFrameParamSets, ptr, i32, i32, ptr, %struct.VVCDSPContext, %struct.VideoDSPContext, ptr, i64, ptr, ptr, ptr, ptr, %struct.anon }
%struct.VVCFrame = type { ptr, ptr, ptr, ptr, ptr, ptr, i32, i32, i32, %struct.VVCWindow, i32, i32, ptr, ptr, i16, i8, ptr }
%struct.VVCWindow = type { i16, i16, i16, i16 }
%struct.VVCFrameParamSets = type { ptr, ptr, %struct.VVCPH, [8 x ptr], %struct.VVCLMCS, ptr }
%struct.VVCPH = type { ptr, ptr, i32, i32, i8, [3 x i16], i8, [3 x i16], %struct.PredWeightTable }
%struct.PredWeightTable = type { [2 x i8], [2 x i8], [2 x [2 x [15 x i8]]], [2 x [3 x [15 x i16]]], [2 x [3 x [15 x i16]]] }
%struct.VVCLMCS = type { i8, i8, %union.anon.0, %union.anon.0, [17 x i16], [16 x i16] }
%union.anon.0 = type { [4096 x i16] }
%struct.VVCDSPContext = type { %struct.VVCInterDSPContext, %struct.VVCIntraDSPContext, %struct.VVCItxDSPContext, %struct.VVCLMCSDSPContext, %struct.VVCLFDSPContext, %struct.VVCSAODSPContext, %struct.VVCALFDSPContext }
%struct.VVCInterDSPContext = type { [2 x [7 x [2 x [2 x ptr]]]], [2 x [7 x [2 x [2 x ptr]]]], [2 x [7 x [2 x [2 x ptr]]]], [2 x [7 x ptr]], [2 x [7 x ptr]], [2 x [7 x ptr]], ptr, ptr, ptr, ptr, ptr, ptr, ptr, ptr, ptr, ptr, ptr, [2 x [2 x ptr]] }
%struct.VVCIntraDSPContext = type { ptr, ptr, ptr, ptr, ptr, ptr, ptr, ptr, ptr, ptr }
%struct.VVCItxDSPContext = type { ptr, ptr, [3 x [6 x ptr]], ptr, ptr }
%struct.VVCLMCSDSPContext = type { ptr }
%struct.VVCLFDSPContext = type { [2 x ptr], [2 x ptr], [2 x ptr] }
%struct.VVCSAODSPContext = type { [9 x ptr], [9 x ptr], [2 x ptr] }
%struct.VVCALFDSPContext = type { [2 x ptr], ptr, ptr, ptr }
%struct.VideoDSPContext = type { ptr, ptr }
%struct.anon = type { ptr, ptr, ptr, ptr, [2 x ptr], [2 x ptr], [2 x ptr], [2 x ptr], [2 x ptr], [3 x ptr], ptr, ptr, [2 x ptr], ptr, ptr, [2 x ptr], ptr, ptr, ptr, [2 x ptr], ptr, [3 x ptr], ptr, [2 x ptr], [2 x ptr], [2 x ptr], [2 x [3 x ptr]], [2 x ptr], [2 x ptr], [3 x ptr], [3 x ptr], [3 x [2 x ptr]], [3 x [2 x ptr]], ptr, ptr, ptr, [3 x ptr], %struct.anon.1 }
%struct.anon.1 = type { i32, i32, i32, i32, i32, i32, i32, i32, i32, i32, i32, i32 }
%struct.VVCSPS = type { ptr, [3 x i8], [3 x i8], i32, i8, i32, i8, i8, i8, i16, i8, i8, i8, i8, i8, i8, i8, i8, [5 x i32], i8, i8, [3 x [111 x i8]] }
%struct.VVCPPS = type { ptr, [3 x i8], [6 x [3 x i8]], i16, i16, [1000 x i16], [1000 x i16], i16, i16, i16, i16, i32, i16, i16, i16, i16, ptr, ptr, ptr, ptr, ptr, i16, i16, i16, i16, i16, [1000 x i16], [1000 x i16], [1000 x i16], [1000 x i16] }
%struct.H266RawSPS = type { %struct.H266RawNALUnitHeader, i8, i8, i8, i8, i8, i8, %struct.H266RawProfileTierLevel, i8, i8, i8, i16, i16, i8, i16, i16, i16, i16, i8, i16, i8, i8, [1000 x i16], [1000 x i16], [1000 x i16], [1000 x i16], [1000 x i8], [1000 x i8], i8, i8, i8, [1000 x i32], i8, i8, i8, i8, i8, i8, i8, [16 x i8], i8, [16 x i8], i8, %struct.H266DpbParameters, i8, i8, i8, i8, i8, i8, i8, i8, i8, i8, i8, i8, i8, i8, i8, i8, i8, i8, i8, i8, i8, i8, i8, i8, i8, [3 x i8], [3 x i8], [3 x [111 x i8]], [3 x [111 x i8]], i8, i8, i8, i8, i8, i8, i8, i8, i8, i8, [2 x i8], [2 x [64 x %struct.H266RefPicListStruct]], i8, i8, i8, i8, i8, i8, i8, i8, i8, i8, i8, i8, i8, i8, i8, i8, i8, i8, i8, i8, i8, i8, i8, i8, i8, i8, i8, i8, i8, i8, i8, i8, i8, i8, i8, i8, i8, i8, [4 x i8], [4 x i16], i8, i8, i8, i8, i8, i8, i8, i8, i8, [3 x i16], i8, [3 x i16], i8, i8, %struct.H266RawGeneralTimingHrdParameters, %struct.H266RawOlsTimingHrdParameters, i8, i8, i16, %struct.H266RawVUI, i8, i8, i8, i8, i8, i8, i8, i8, %struct.H266RawExtensionData }
%struct.H266RawNALUnitHeader = type { i8, i8, i8, i8 }
%struct.H266RawProfileTierLevel = type { i8, i8, i8, i8, i8, %struct.H266GeneralConstraintsInfo, [6 x i8], [6 x i8], i8, [256 x i32], i8 }
%struct.H266GeneralConstraintsInfo = type { i8, i8, i8, i8, i8, i8, i8, i8, i8, i8, i8, i8, i8, i8, i8, i8, i8, i8, i8, i8, i8, i8, i8, i8, i8, i8, i8, i8, i8, i8, i8, i8, i8, i8, i8, i8, i8, i8, i8, i8, i8, i8, i8, i8, i8, i8, i8, i8, i8, i8, i8, i8, i8, i8, i8, i8, i8, i8, i8, i8, i8, i8, i8, i8, i8, i8, i8, i8, [255 x i8], i8, i8, i8, i8, i8, i8 }
%struct.H266DpbParameters = type { [7 x i8], [7 x i8], [7 x i8] }
%struct.H266RefPicListStruct = type { i8, i8, [29 x i8], [29 x i8], [29 x i8], [29 x i8], [29 x i8], [29 x i8] }
%struct.H266RawGeneralTimingHrdParameters = type { i32, i32, i8, i8, i8, i8, i8, i8, i8, i8, i8 }
%struct.H266RawOlsTimingHrdParameters = type { [7 x i8], [7 x i8], [7 x i16], [7 x i8], %struct.H266RawSubLayerHRDParameters, %struct.H266RawSubLayerHRDParameters }
%struct.H266RawSubLayerHRDParameters = type { [7 x [32 x i32]], [7 x [32 x i32]], [7 x [32 x i32]], [7 x [32 x i32]], [7 x [32 x i8]] }
%struct.H266RawVUI = type { i8, i8, i8, i8, i8, i8, i8, i16, i16, i8, i8, i8, i8, i8, i8, i8, i8, i8, i8, i8, %struct.H266RawExtensionData }
%struct.H266RawExtensionData = type { ptr, ptr, i64 }

@.str.2 = private unnamed_addr constant [30 x i8] c"Assertion %s failed at %s:%d\0A\00", align 1
@.str.3 = private unnamed_addr constant [16 x i8] c"l->nb_tabs < 32\00", align 1
@.str.4 = private unnamed_addr constant [21 x i8] c"libavcodec/vvc/dec.c\00", align 1

; Function Attrs: nounwind uwtable
define internal void @tl_init(ptr noundef %0, i32 noundef %1, i32 noundef %2) #0 {
  %4 = alloca ptr, align 8
  %5 = alloca i32, align 4
  %6 = alloca i32, align 4
  store ptr %0, ptr %4, align 8, !tbaa !14
  store i32 %1, ptr %5, align 4, !tbaa !10
  store i32 %2, ptr %6, align 4, !tbaa !10
  %7 = load ptr, ptr %4, align 8, !tbaa !14
  %8 = getelementptr inbounds nuw %struct.TabList, ptr %7, i32 0, i32 1
  store i32 0, ptr %8, align 8, !tbaa !18
  %9 = load i32, ptr %5, align 4, !tbaa !10
  %10 = load ptr, ptr %4, align 8, !tbaa !14
  %11 = getelementptr inbounds nuw %struct.TabList, ptr %10, i32 0, i32 2
  store i32 %9, ptr %11, align 4, !tbaa !16
  %12 = load i32, ptr %6, align 4, !tbaa !10
  %13 = load ptr, ptr %4, align 8, !tbaa !14
  %14 = getelementptr inbounds nuw %struct.TabList, ptr %13, i32 0, i32 3
  store i32 %12, ptr %14, align 8, !tbaa !173
  ret void
}

; Function Attrs: nounwind uwtable
define internal void @ibc_tl_init(ptr noundef %0, ptr noundef %1) #0 {
  %3 = alloca ptr, align 8
  %4 = alloca ptr, align 8
  %5 = alloca ptr, align 8
  %6 = alloca ptr, align 8
  %7 = alloca i32, align 4
  %8 = alloca i32, align 4
  %9 = alloca i32, align 4
  %10 = alloca i32, align 4
  %11 = alloca i32, align 4
  %12 = alloca i32, align 4
  %13 = alloca i32, align 4
  %14 = alloca i32, align 4
  %15 = alloca i32, align 4
  store ptr %0, ptr %3, align 8, !tbaa !14
  store ptr %1, ptr %4, align 8, !tbaa !4
  call void @llvm.lifetime.start.p0(i64 8, ptr %5) #9
  %16 = load ptr, ptr %4, align 8, !tbaa !4
  %17 = getelementptr inbounds nuw %struct.VVCFrameContext, ptr %16, i32 0, i32 4
  %18 = getelementptr inbounds nuw %struct.VVCFrameParamSets, ptr %17, i32 0, i32 0
  %19 = load ptr, ptr %18, align 8, !tbaa !113
  store ptr %19, ptr %5, align 8, !tbaa !114
  call void @llvm.lifetime.start.p0(i64 8, ptr %6) #9
  %20 = load ptr, ptr %4, align 8, !tbaa !4
  %21 = getelementptr inbounds nuw %struct.VVCFrameContext, ptr %20, i32 0, i32 4
  %22 = getelementptr inbounds nuw %struct.VVCFrameParamSets, ptr %21, i32 0, i32 1
  %23 = load ptr, ptr %22, align 8, !tbaa !115
  store ptr %23, ptr %6, align 8, !tbaa !116
  call void @llvm.lifetime.start.p0(i64 4, ptr %7) #9
  %24 = load ptr, ptr %6, align 8, !tbaa !116
  %25 = icmp ne ptr %24, null
  br i1 %25, label %26, label %31

26:                                               ; preds = %2
  %27 = load ptr, ptr %6, align 8, !tbaa !116
  %28 = getelementptr inbounds nuw %struct.VVCPPS, ptr %27, i32 0, i32 10
  %29 = load i16, ptr %28, align 8, !tbaa !144
  %30 = zext i16 %29 to i32
  br label %32

31:                                               ; preds = %2
  br label %32

32:                                               ; preds = %31, %26
  %33 = phi i32 [ %30, %26 ], [ 0, %31 ]
  store i32 %33, ptr %7, align 4, !tbaa !10
  call void @llvm.lifetime.start.p0(i64 4, ptr %8) #9
  %34 = load ptr, ptr %5, align 8, !tbaa !114
  %35 = icmp ne ptr %34, null
  br i1 %35, label %36, label %41

36:                                               ; preds = %32
  %37 = load ptr, ptr %5, align 8, !tbaa !114
  %38 = getelementptr inbounds nuw %struct.VVCSPS, ptr %37, i32 0, i32 9
  %39 = load i16, ptr %38, align 8, !tbaa !169
  %40 = zext i16 %39 to i32
  br label %42

41:                                               ; preds = %32
  br label %42

42:                                               ; preds = %41, %36
  %43 = phi i32 [ %40, %36 ], [ 0, %41 ]
  store i32 %43, ptr %8, align 4, !tbaa !10
  call void @llvm.lifetime.start.p0(i64 4, ptr %9) #9
  %44 = load ptr, ptr %5, align 8, !tbaa !114
  %45 = icmp ne ptr %44, null
  br i1 %45, label %46, label %51

46:                                               ; preds = %42
  %47 = load ptr, ptr %5, align 8, !tbaa !114
  %48 = getelementptr inbounds nuw %struct.VVCSPS, ptr %47, i32 0, i32 4
  %49 = load i8, ptr %48, align 4, !tbaa !157
  %50 = zext i8 %49 to i32
  br label %52

51:                                               ; preds = %42
  br label %52

52:                                               ; preds = %51, %46
  %53 = phi i32 [ %50, %46 ], [ 0, %51 ]
  store i32 %53, ptr %9, align 4, !tbaa !10
  call void @llvm.lifetime.start.p0(i64 4, ptr %10) #9
  %54 = load ptr, ptr %5, align 8, !tbaa !114
  %55 = icmp ne ptr %54, null
  br i1 %55, label %56, label %63

56:                                               ; preds = %52
  %57 = load ptr, ptr %5, align 8, !tbaa !114
  %58 = getelementptr inbounds nuw %struct.VVCSPS, ptr %57, i32 0, i32 0
  %59 = load ptr, ptr %58, align 8, !tbaa !145
  %60 = getelementptr inbounds nuw %struct.H266RawSPS, ptr %59, i32 0, i32 4
  %61 = load i8, ptr %60, align 1, !tbaa !146
  %62 = zext i8 %61 to i32
  br label %64

63:                                               ; preds = %52
  br label %64

64:                                               ; preds = %63, %56
  %65 = phi i32 [ %62, %56 ], [ 0, %63 ]
  store i32 %65, ptr %10, align 4, !tbaa !10
  call void @llvm.lifetime.start.p0(i64 4, ptr %11) #9
  %66 = load ptr, ptr %5, align 8, !tbaa !114
  %67 = icmp ne ptr %66, null
  br i1 %67, label %68, label %75

68:                                               ; preds = %64
  %69 = load ptr, ptr %5, align 8, !tbaa !114
  %70 = getelementptr inbounds nuw %struct.VVCSPS, ptr %69, i32 0, i32 0
  %71 = load ptr, ptr %70, align 8, !tbaa !145
  %72 = getelementptr inbounds nuw %struct.H266RawSPS, ptr %71, i32 0, i32 118
  %73 = load i8, ptr %72, align 4, !tbaa !170
  %74 = zext i8 %73 to i32
  br label %76

75:                                               ; preds = %64
  br label %76

76:                                               ; preds = %75, %68
  %77 = phi i32 [ %74, %68 ], [ 0, %75 ]
  store i32 %77, ptr %11, align 4, !tbaa !10
  call void @llvm.lifetime.start.p0(i64 4, ptr %12) #9
  %78 = load ptr, ptr %4, align 8, !tbaa !4
  %79 = getelementptr inbounds nuw %struct.VVCFrameContext, ptr %78, i32 0, i32 17
  %80 = getelementptr inbounds nuw %struct.anon, ptr %79, i32 0, i32 37
  %81 = getelementptr inbounds nuw %struct.anon.1, ptr %80, i32 0, i32 9
  %82 = load i32, ptr %81, align 4, !tbaa !158
  %83 = load i32, ptr %10, align 4, !tbaa !10
  %84 = icmp ne i32 %82, %83
  br i1 %84, label %109, label %85

85:                                               ; preds = %76
  %86 = load ptr, ptr %4, align 8, !tbaa !4
  %87 = getelementptr inbounds nuw %struct.VVCFrameContext, ptr %86, i32 0, i32 17
  %88 = getelementptr inbounds nuw %struct.anon, ptr %87, i32 0, i32 37
  %89 = getelementptr inbounds nuw %struct.anon.1, ptr %88, i32 0, i32 6
  %90 = load i32, ptr %89, align 8, !tbaa !162
  %91 = load i32, ptr %7, align 4, !tbaa !10
  %92 = icmp ne i32 %90, %91
  br i1 %92, label %109, label %93

93:                                               ; preds = %85
  %94 = load ptr, ptr %4, align 8, !tbaa !4
  %95 = getelementptr inbounds nuw %struct.VVCFrameContext, ptr %94, i32 0, i32 17
  %96 = getelementptr inbounds nuw %struct.anon, ptr %95, i32 0, i32 37
  %97 = getelementptr inbounds nuw %struct.anon.1, ptr %96, i32 0, i32 1
  %98 = load i32, ptr %97, align 4, !tbaa !124
  %99 = load i32, ptr %8, align 4, !tbaa !10
  %100 = icmp ne i32 %98, %99
  br i1 %100, label %109, label %101

101:                                              ; preds = %93
  %102 = load ptr, ptr %4, align 8, !tbaa !4
  %103 = getelementptr inbounds nuw %struct.VVCFrameContext, ptr %102, i32 0, i32 17
  %104 = getelementptr inbounds nuw %struct.anon, ptr %103, i32 0, i32 37
  %105 = getelementptr inbounds nuw %struct.anon.1, ptr %104, i32 0, i32 10
  %106 = load i32, ptr %105, align 8, !tbaa !163
  %107 = load i32, ptr %9, align 4, !tbaa !10
  %108 = icmp ne i32 %106, %107
  br label %109

109:                                              ; preds = %101, %93, %85, %76
  %110 = phi i1 [ true, %93 ], [ true, %85 ], [ true, %76 ], [ %108, %101 ]
  %111 = zext i1 %110 to i32
  store i32 %111, ptr %12, align 4, !tbaa !10
  %112 = load i32, ptr %8, align 4, !tbaa !10
  %113 = icmp ne i32 %112, 0
  br i1 %113, label %114, label %117

114:                                              ; preds = %109
  %115 = load i32, ptr %8, align 4, !tbaa !10
  %116 = sdiv i32 32768, %115
  br label %118

117:                                              ; preds = %109
  br label %118

118:                                              ; preds = %117, %114
  %119 = phi i32 [ %116, %114 ], [ 0, %117 ]
  %120 = load ptr, ptr %4, align 8, !tbaa !4
  %121 = getelementptr inbounds nuw %struct.VVCFrameContext, ptr %120, i32 0, i32 17
  %122 = getelementptr inbounds nuw %struct.anon, ptr %121, i32 0, i32 37
  %123 = getelementptr inbounds nuw %struct.anon.1, ptr %122, i32 0, i32 11
  store i32 %119, ptr %123, align 4, !tbaa !171
  %124 = load ptr, ptr %3, align 8, !tbaa !14
  %125 = load i32, ptr %11, align 4, !tbaa !10
  %126 = load i32, ptr %12, align 4, !tbaa !10
  call void @tl_init(ptr noundef %124, i32 noundef %125, i32 noundef %126)
  call void @llvm.lifetime.start.p0(i64 4, ptr %13) #9
  store i32 0, ptr %13, align 4, !tbaa !10
  br label %127

127:                                              ; preds = %213, %118
  %128 = load i32, ptr %13, align 4, !tbaa !10
  %129 = icmp slt i32 %128, 3
  br i1 %129, label %131, label %130

130:                                              ; preds = %127
  call void @llvm.lifetime.end.p0(i64 4, ptr %13) #9
  br label %216

131:                                              ; preds = %127
  call void @llvm.lifetime.start.p0(i64 4, ptr %14) #9
  %132 = load ptr, ptr %5, align 8, !tbaa !114
  %133 = icmp ne ptr %132, null
  br i1 %133, label %134, label %142

134:                                              ; preds = %131
  %135 = load ptr, ptr %5, align 8, !tbaa !114
  %136 = getelementptr inbounds nuw %struct.VVCSPS, ptr %135, i32 0, i32 1
  %137 = load i32, ptr %13, align 4, !tbaa !10
  %138 = sext i32 %137 to i64
  %139 = getelementptr inbounds [3 x i8], ptr %136, i64 0, i64 %138
  %140 = load i8, ptr %139, align 1, !tbaa !164
  %141 = zext i8 %140 to i32
  br label %143

142:                                              ; preds = %131
  br label %143

143:                                              ; preds = %142, %134
  %144 = phi i32 [ %141, %134 ], [ 0, %142 ]
  store i32 %144, ptr %14, align 4, !tbaa !10
  call void @llvm.lifetime.start.p0(i64 4, ptr %15) #9
  %145 = load ptr, ptr %5, align 8, !tbaa !114
  %146 = icmp ne ptr %145, null
  br i1 %146, label %147, label %155

147:                                              ; preds = %143
  %148 = load ptr, ptr %5, align 8, !tbaa !114
  %149 = getelementptr inbounds nuw %struct.VVCSPS, ptr %148, i32 0, i32 2
  %150 = load i32, ptr %13, align 4, !tbaa !10
  %151 = sext i32 %150 to i64
  %152 = getelementptr inbounds [3 x i8], ptr %149, i64 0, i64 %151
  %153 = load i8, ptr %152, align 1, !tbaa !164
  %154 = zext i8 %153 to i32
  br label %156

155:                                              ; preds = %143
  br label %156

156:                                              ; preds = %155, %147
  %157 = phi i32 [ %154, %147 ], [ 0, %155 ]
  store i32 %157, ptr %15, align 4, !tbaa !10
  br label %158

158:                                              ; preds = %156
  br label %159

159:                                              ; preds = %158
  %160 = load ptr, ptr %3, align 8, !tbaa !14
  %161 = getelementptr inbounds nuw %struct.TabList, ptr %160, i32 0, i32 1
  %162 = load i32, ptr %161, align 8, !tbaa !18
  %163 = icmp slt i32 %162, 32
  br i1 %163, label %165, label %164

164:                                              ; preds = %159
  call void (ptr, i32, ptr, ...) @av_log(ptr noundef null, i32 noundef 0, ptr noundef @.str.2, ptr noundef @.str.3, ptr noundef @.str.4, i32 noundef 309)
  call void @abort() #11
  unreachable

165:                                              ; preds = %159
  br label %166

166:                                              ; preds = %165
  br label %167

167:                                              ; preds = %166
  %168 = load ptr, ptr %4, align 8, !tbaa !4
  %169 = getelementptr inbounds nuw %struct.VVCFrameContext, ptr %168, i32 0, i32 17
  %170 = getelementptr inbounds nuw %struct.anon, ptr %169, i32 0, i32 36
  %171 = load i32, ptr %13, align 4, !tbaa !10
  %172 = sext i32 %171 to i64
  %173 = getelementptr inbounds [3 x ptr], ptr %170, i64 0, i64 %172
  %174 = load ptr, ptr %3, align 8, !tbaa !14
  %175 = getelementptr inbounds nuw %struct.TabList, ptr %174, i32 0, i32 0
  %176 = load ptr, ptr %3, align 8, !tbaa !14
  %177 = getelementptr inbounds nuw %struct.TabList, ptr %176, i32 0, i32 1
  %178 = load i32, ptr %177, align 8, !tbaa !18
  %179 = sext i32 %178 to i64
  %180 = getelementptr inbounds [32 x %struct.Tab], ptr %175, i64 0, i64 %179
  %181 = getelementptr inbounds nuw %struct.Tab, ptr %180, i32 0, i32 0
  store ptr %173, ptr %181, align 8, !tbaa !21
  %182 = load ptr, ptr %4, align 8, !tbaa !4
  %183 = getelementptr inbounds nuw %struct.VVCFrameContext, ptr %182, i32 0, i32 17
  %184 = getelementptr inbounds nuw %struct.anon, ptr %183, i32 0, i32 37
  %185 = getelementptr inbounds nuw %struct.anon.1, ptr %184, i32 0, i32 11
  %186 = load i32, ptr %185, align 4, !tbaa !171
  %187 = load i32, ptr %8, align 4, !tbaa !10
  %188 = mul nsw i32 %186, %187
  %189 = load i32, ptr %7, align 4, !tbaa !10
  %190 = mul nsw i32 %188, %189
  %191 = load i32, ptr %9, align 4, !tbaa !10
  %192 = shl i32 %190, %191
  %193 = load i32, ptr %14, align 4, !tbaa !10
  %194 = ashr i32 %192, %193
  %195 = load i32, ptr %15, align 4, !tbaa !10
  %196 = ashr i32 %194, %195
  %197 = sext i32 %196 to i64
  %198 = mul i64 1, %197
  %199 = load ptr, ptr %3, align 8, !tbaa !14
  %200 = getelementptr inbounds nuw %struct.TabList, ptr %199, i32 0, i32 0
  %201 = load ptr, ptr %3, align 8, !tbaa !14
  %202 = getelementptr inbounds nuw %struct.TabList, ptr %201, i32 0, i32 1
  %203 = load i32, ptr %202, align 8, !tbaa !18
  %204 = sext i32 %203 to i64
  %205 = getelementptr inbounds [32 x %struct.Tab], ptr %200, i64 0, i64 %204
  %206 = getelementptr inbounds nuw %struct.Tab, ptr %205, i32 0, i32 1
  store i64 %198, ptr %206, align 8, !tbaa !25
  %207 = load ptr, ptr %3, align 8, !tbaa !14
  %208 = getelementptr inbounds nuw %struct.TabList, ptr %207, i32 0, i32 1
  %209 = load i32, ptr %208, align 8, !tbaa !18
  %210 = add nsw i32 %209, 1
  store i32 %210, ptr %208, align 8, !tbaa !18
  br label %211

211:                                              ; preds = %167
  br label %212

212:                                              ; preds = %211
  call void @llvm.lifetime.end.p0(i64 4, ptr %15) #9
  call void @llvm.lifetime.end.p0(i64 4, ptr %14) #9
  br label %213

213:                                              ; preds = %212
  %214 = load i32, ptr %13, align 4, !tbaa !10
  %215 = add nsw i32 %214, 1
  store i32 %215, ptr %13, align 4, !tbaa !10
  br label %127, !llvm.loop !172

216:                                              ; preds = %130
  call void @llvm.lifetime.end.p0(i64 4, ptr %12) #9
  call void @llvm.lifetime.end.p0(i64 4, ptr %11) #9
  call void @llvm.lifetime.end.p0(i64 4, ptr %10) #9
  call void @llvm.lifetime.end.p0(i64 4, ptr %9) #9
  call void @llvm.lifetime.end.p0(i64 4, ptr %8) #9
  call void @llvm.lifetime.end.p0(i64 4, ptr %7) #9
  call void @llvm.lifetime.end.p0(i64 8, ptr %6) #9
  call void @llvm.lifetime.end.p0(i64 8, ptr %5) #9
  ret void
}