; Function Attrs: nofree norecurse nosync nounwind memory(read, argmem: readwrite, inaccessiblemem: none) uwtable
define internal void @ibc_tl_init(ptr noundef writeonly captures(none) initializes((512, 524)) %0, ptr noundef initializes((21980, 21984)) %1) #4 {
  %3 = getelementptr inbounds nuw i8, ptr %1, i64 1928
  %4 = load ptr, ptr %3, align 8, !tbaa !157
  %5 = getelementptr inbounds nuw i8, ptr %1, i64 1936
  %6 = load ptr, ptr %5, align 8, !tbaa !158
  %.not = icmp eq ptr %6, null
  br i1 %.not, label %11, label %7

7:                                                ; preds = %2
  %8 = getelementptr inbounds nuw i8, ptr %6, i64 4040
  %9 = load i16, ptr %8, align 8, !tbaa !190
  %10 = zext i16 %9 to i32
  br label %11

11:                                               ; preds = %2, %7
  %12 = phi i32 [ %10, %7 ], [ 0, %2 ]
  %.not51 = icmp eq ptr %4, null
  br i1 %.not51, label %.thread57, label %13

13:                                               ; preds = %11
  %14 = getelementptr inbounds nuw i8, ptr %4, i64 32
  %15 = load i16, ptr %14, align 8, !tbaa !285
  %16 = zext i16 %15 to i32
  %17 = getelementptr inbounds nuw i8, ptr %4, i64 20
  %18 = load i8, ptr %17, align 4, !tbaa !205
  %19 = zext i8 %18 to i32
  %20 = load ptr, ptr %4, align 8, !tbaa !192
  %21 = getelementptr inbounds nuw i8, ptr %20, i64 7
  %22 = load i8, ptr %21, align 1, !tbaa !193
  %23 = zext i8 %22 to i32
  %24 = getelementptr inbounds nuw i8, ptr %20, i64 38748
  %25 = load i8, ptr %24, align 4, !tbaa !286
  %26 = zext i8 %25 to i32
  br label %.thread57

.thread57:                                        ; preds = %11, %13
  %27 = phi i32 [ %23, %13 ], [ 0, %11 ]
  %28 = phi i32 [ %16, %13 ], [ 0, %11 ]
  %29 = phi i32 [ %19, %13 ], [ 0, %11 ]
  %30 = phi i32 [ %26, %13 ], [ 0, %11 ]
  %31 = getelementptr inbounds nuw i8, ptr %1, i64 21972
  %32 = load i32, ptr %31, align 4, !tbaa !204
  %.not52 = icmp eq i32 %32, %27
  br i1 %.not52, label %33, label %44

33:                                               ; preds = %.thread57
  %34 = getelementptr inbounds nuw i8, ptr %1, i64 21960
  %35 = load i32, ptr %34, align 8, !tbaa !191
  %.not53 = icmp eq i32 %35, %12
  br i1 %.not53, label %36, label %44

36:                                               ; preds = %33
  %37 = getelementptr inbounds nuw i8, ptr %1, i64 21940
  %38 = load i32, ptr %37, align 4, !tbaa !177
  %.not54 = icmp eq i32 %38, %28
  br i1 %.not54, label %39, label %44

39:                                               ; preds = %36
  %40 = getelementptr inbounds nuw i8, ptr %1, i64 21976
  %41 = load i32, ptr %40, align 8, !tbaa !206
  %42 = icmp ne i32 %41, %29
  %43 = zext i1 %42 to i32
  br label %44

44:                                               ; preds = %39, %36, %33, %.thread57
  %45 = phi i32 [ 1, %36 ], [ 1, %33 ], [ 1, %.thread57 ], [ %43, %39 ]
  %.not55 = icmp eq i32 %28, 0
  br i1 %.not55, label %48, label %46

46:                                               ; preds = %44
  %.rhs.trunc = trunc nuw i32 %28 to i16
  %47 = udiv i16 -32768, %.rhs.trunc
  %.zext = zext i16 %47 to i32
  br label %48

48:                                               ; preds = %44, %46
  %49 = phi i32 [ %.zext, %46 ], [ 0, %44 ]
  %50 = getelementptr inbounds nuw i8, ptr %1, i64 21980
  store i32 %49, ptr %50, align 4, !tbaa !287
  %51 = getelementptr inbounds nuw i8, ptr %0, i64 512
  store i32 0, ptr %51, align 8, !tbaa !18
  %52 = getelementptr inbounds nuw i8, ptr %0, i64 516
  store i32 %30, ptr %52, align 4, !tbaa !10
  %53 = getelementptr inbounds nuw i8, ptr %0, i64 520
  store i32 %45, ptr %53, align 8, !tbaa !167
  %factor.op.mul = mul nuw nsw i32 %28, %49
  %54 = getelementptr inbounds nuw i8, ptr %4, i64 8
  %55 = getelementptr inbounds nuw i8, ptr %4, i64 11
  %56 = getelementptr inbounds nuw i8, ptr %1, i64 21912
  %.reass = mul i32 %factor.op.mul, %12
  %57 = shl i32 %.reass, %29
  br i1 %.not51, label %.split.us, label %.thread58.preheader

.split.us:                                        ; preds = %48
  %58 = sext i32 %57 to i64
  br label %59

59:                                               ; preds = %.split.us, %59
  %indvars.iv69 = phi i64 [ %indvars.iv.next70, %59 ], [ 0, %.split.us ]
  %60 = getelementptr inbounds nuw [3 x ptr], ptr %56, i64 0, i64 %indvars.iv69
  %61 = getelementptr inbounds nuw [32 x %struct.Tab], ptr %0, i64 0, i64 %indvars.iv69
  store ptr %60, ptr %61, align 8, !tbaa !13
  %62 = getelementptr inbounds nuw [32 x %struct.Tab], ptr %0, i64 0, i64 %indvars.iv69, i32 1
  store i64 %58, ptr %62, align 8, !tbaa !17
  %indvars.iv.next70 = add nuw nsw i64 %indvars.iv69, 1
  %exitcond74.not = icmp eq i64 %indvars.iv.next70, 3
  br i1 %exitcond74.not, label %.split63.us.loopexit, label %59, !llvm.loop !288

.split63.us.loopexit:                             ; preds = %59
  store i32 3, ptr %51, align 8, !tbaa !18
  br label %.split63.us

.split63.us:                                      ; preds = %.thread58.preheader, %.split63.us.loopexit
  ret void

.thread58.preheader:                              ; preds = %48, %.thread58.preheader
  %indvars.iv = phi i64 [ %indvars.iv.next, %.thread58.preheader ], [ 0, %48 ]
  %63 = getelementptr inbounds nuw [3 x i8], ptr %55, i64 0, i64 %indvars.iv
  %64 = load i8, ptr %63, align 1, !tbaa !217
  %65 = zext nneg i8 %64 to i32
  %66 = getelementptr inbounds nuw [3 x i8], ptr %54, i64 0, i64 %indvars.iv
  %67 = load i8, ptr %66, align 1, !tbaa !217
  %68 = zext nneg i8 %67 to i32
  %69 = getelementptr inbounds nuw [3 x ptr], ptr %56, i64 0, i64 %indvars.iv
  %70 = getelementptr inbounds nuw [32 x %struct.Tab], ptr %0, i64 0, i64 %indvars.iv
  store ptr %69, ptr %70, align 8, !tbaa !13
  %71 = ashr i32 %57, %68
  %72 = ashr i32 %71, %65
  %73 = sext i32 %72 to i64
  %74 = getelementptr inbounds nuw [32 x %struct.Tab], ptr %0, i64 0, i64 %indvars.iv, i32 1
  store i64 %73, ptr %74, align 8, !tbaa !17
  %indvars.iv.next = add nuw nsw i64 %indvars.iv, 1
  %75 = trunc nuw nsw i64 %indvars.iv.next to i32
  store i32 %75, ptr %51, align 8, !tbaa !18
  %exitcond.not = icmp eq i64 %indvars.iv.next, 3
  br i1 %exitcond.not, label %.split63.us, label %.thread58.preheader, !llvm.loop !288
}